target datalayout = "e-m:e-p270:32:32-p271:32:32-p272:64:64-i64:64-i128:128-f80:128-n8:16:32:64-S128"
target triple = "x86_64-pc-linux-gnu"

%struct.SDL_FPoint = type { float, float }
%struct.SDL_FColor = type { float, float, float, float }
%struct.SDL_RenderCommand = type { i32, %union.anon.0, ptr }
%union.anon.0 = type { %struct.anon.3 }
%struct.anon.3 = type { i64, i64, float, %struct.SDL_FColor, i32, ptr, i32, i32, i32, ptr }
%struct.VULKAN_VertexPositionColor = type { [2 x float], [2 x float], %struct.SDL_FColor }

; Function Attrs: nounwind uwtable
define internal zeroext i1 @VULKAN_QueueDrawPoints(ptr noundef %0, ptr noundef %1, ptr noundef %2, i32 noundef %3) #0 {
  %5 = alloca i1, align 1
  %6 = alloca ptr, align 8
  %7 = alloca ptr, align 8
  %8 = alloca ptr, align 8
  %9 = alloca i32, align 4
  %10 = alloca ptr, align 8
  %11 = alloca i32, align 4
  %12 = alloca i8, align 1
  %13 = alloca i32, align 4
  store ptr %0, ptr %6, align 8
  store ptr %1, ptr %7, align 8
  store ptr %2, ptr %8, align 8
  store i32 %3, ptr %9, align 4
  call void @llvm.lifetime.start.p0(i64 8, ptr %10) #6
  %14 = load ptr, ptr %6, align 8
  %15 = load i32, ptr %9, align 4
  %16 = sext i32 %15 to i64
  %17 = mul i64 %16, 32
  %18 = load ptr, ptr %7, align 8
  %19 = getelementptr inbounds nuw %struct.SDL_RenderCommand, ptr %18, i32 0, i32 1
  %20 = getelementptr inbounds nuw %struct.anon.3, ptr %19, i32 0, i32 0
  %21 = call ptr @SDL_AllocateRenderVertices(ptr noundef %14, i64 noundef %17, i64 noundef 0, ptr noundef %20)
  store ptr %21, ptr %10, align 8
  call void @llvm.lifetime.start.p0(i64 4, ptr %11) #6
  call void @llvm.lifetime.start.p0(i64 1, ptr %12) #6
  %22 = load ptr, ptr %6, align 8
  %23 = call zeroext i1 @SDL_RenderingLinearSpace(ptr noundef %22)
  %24 = zext i1 %23 to i8
  store i8 %24, ptr %12, align 1
  %25 = load ptr, ptr %10, align 8
  %26 = icmp ne ptr %25, null
  br i1 %26, label %28, label %27

27:                                               ; preds = %4
  store i1 false, ptr %5, align 1
  store i32 1, ptr %13, align 4
  br label %82

28:                                               ; preds = %4
  %29 = load i32, ptr %9, align 4
  %30 = sext i32 %29 to i64
  %31 = load ptr, ptr %7, align 8
  %32 = getelementptr inbounds nuw %struct.SDL_RenderCommand, ptr %31, i32 0, i32 1
  %33 = getelementptr inbounds nuw %struct.anon.3, ptr %32, i32 0, i32 1
  store i64 %30, ptr %33, align 8
  store i32 0, ptr %11, align 4
  br label %34

34:                                               ; preds = %78, %28
  %35 = load i32, ptr %11, align 4
  %36 = load i32, ptr %9, align 4
  %37 = icmp slt i32 %35, %36
  br i1 %37, label %38, label %81

38:                                               ; preds = %34
  %39 = load ptr, ptr %8, align 8
  %40 = load i32, ptr %11, align 4
  %41 = sext i32 %40 to i64
  %42 = getelementptr inbounds %struct.SDL_FPoint, ptr %39, i64 %41
  %43 = getelementptr inbounds nuw %struct.SDL_FPoint, ptr %42, i32 0, i32 0
  %44 = load float, ptr %43, align 4
  %45 = fadd float %44, 5.000000e-01
  %46 = load ptr, ptr %10, align 8
  %47 = getelementptr inbounds nuw %struct.VULKAN_VertexPositionColor, ptr %46, i32 0, i32 0
  %48 = getelementptr inbounds [2 x float], ptr %47, i64 0, i64 0
  store float %45, ptr %48, align 4
  %49 = load ptr, ptr %8, align 8
  %50 = load i32, ptr %11, align 4
  %51 = sext i32 %50 to i64
  %52 = getelementptr inbounds %struct.SDL_FPoint, ptr %49, i64 %51
  %53 = getelementptr inbounds nuw %struct.SDL_FPoint, ptr %52, i32 0, i32 1
  %54 = load float, ptr %53, align 4
  %55 = fadd float %54, 5.000000e-01
  %56 = load ptr, ptr %10, align 8
  %57 = getelementptr inbounds nuw %struct.VULKAN_VertexPositionColor, ptr %56, i32 0, i32 0
  %58 = getelementptr inbounds [2 x float], ptr %57, i64 0, i64 1
  store float %55, ptr %58, align 4
  %59 = load ptr, ptr %10, align 8
  %60 = getelementptr inbounds nuw %struct.VULKAN_VertexPositionColor, ptr %59, i32 0, i32 1
  %61 = getelementptr inbounds [2 x float], ptr %60, i64 0, i64 0
  store float 0.000000e+00, ptr %61, align 4
  %62 = load ptr, ptr %10, align 8
  %63 = getelementptr inbounds nuw %struct.VULKAN_VertexPositionColor, ptr %62, i32 0, i32 1
  %64 = getelementptr inbounds [2 x float], ptr %63, i64 0, i64 1
  store float 0.000000e+00, ptr %64, align 4
  %65 = load ptr, ptr %10, align 8
  %66 = getelementptr inbounds nuw %struct.VULKAN_VertexPositionColor, ptr %65, i32 0, i32 2
  %67 = load ptr, ptr %7, align 8
  %68 = getelementptr inbounds nuw %struct.SDL_RenderCommand, ptr %67, i32 0, i32 1
  %69 = getelementptr inbounds nuw %struct.anon.3, ptr %68, i32 0, i32 3
  call void @llvm.memcpy.p0.p0.i64(ptr align 4 %66, ptr align 4 %69, i64 16, i1 false)
  %70 = load i8, ptr %12, align 1, !range !3, !noundef !4
  %71 = trunc i8 %70 to i1
  br i1 %71, label %72, label %75

72:                                               ; preds = %38
  %73 = load ptr, ptr %10, align 8
  %74 = getelementptr inbounds nuw %struct.VULKAN_VertexPositionColor, ptr %73, i32 0, i32 2
  call void @SDL_ConvertToLinear(ptr noundef %74)
  br label %75

75:                                               ; preds = %72, %38
  %76 = load ptr, ptr %10, align 8
  %77 = getelementptr inbounds nuw %struct.VULKAN_VertexPositionColor, ptr %76, i32 1
  store ptr %77, ptr %10, align 8
  br label %78

78:                                               ; preds = %75
  %79 = load i32, ptr %11, align 4
  %80 = add nsw i32 %79, 1
  store i32 %80, ptr %11, align 4
  br label %34, !llvm.loop !7

81:                                               ; preds = %34
  store i1 true, ptr %5, align 1
  store i32 1, ptr %13, align 4
  br label %82

82:                                               ; preds = %81, %27
  call void @llvm.lifetime.end.p0(i64 1, ptr %12) #6
  call void @llvm.lifetime.end.p0(i64 4, ptr %11) #6
  call void @llvm.lifetime.end.p0(i64 8, ptr %10) #6
  %83 = load i1, ptr %5, align 1
  ret i1 %83
}