; Function Attrs: nounwind uwtable
define internal noundef zeroext i1 @VULKAN_QueueDrawPoints(ptr noundef %0, ptr noundef %1, ptr noundef readonly captures(none) %2, i32 noundef %3) #0 {
  %5 = sext i32 %3 to i64
  %6 = shl nsw i64 %5, 5
  %7 = getelementptr inbounds nuw i8, ptr %1, i64 8
  %8 = tail call ptr @SDL_AllocateRenderVertices(ptr noundef %0, i64 noundef %6, i64 noundef 0, ptr noundef nonnull %7) #8
  %9 = tail call zeroext i1 @SDL_RenderingLinearSpace(ptr noundef %0) #8
  %.not = icmp ne ptr %8, null
  br i1 %.not, label %10, label %.loopexit

10:                                               ; preds = %4
  %11 = getelementptr inbounds nuw i8, ptr %1, i64 16
  store i64 %5, ptr %11, align 8
  %12 = icmp sgt i32 %3, 0
  br i1 %12, label %.lr.ph, label %.loopexit

.lr.ph:                                           ; preds = %10
  %13 = getelementptr inbounds nuw i8, ptr %1, i64 28
  %wide.trip.count33 = zext nneg i32 %3 to i64
  br i1 %9, label %.lr.ph.split.us, label %.lr.ph.split

.lr.ph.split.us:                                  ; preds = %.lr.ph, %.lr.ph.split.us
  %indvars.iv30 = phi i64 [ %indvars.iv.next31, %.lr.ph.split.us ], [ 0, %.lr.ph ]
  %.02426.us = phi ptr [ %24, %.lr.ph.split.us ], [ %8, %.lr.ph ]
  %14 = getelementptr inbounds nuw %struct.SDL_FPoint, ptr %2, i64 %indvars.iv30
  %15 = load float, ptr %14, align 4
  %16 = fadd float %15, 5.000000e-01
  store float %16, ptr %.02426.us, align 4
  %17 = getelementptr inbounds nuw i8, ptr %14, i64 4
  %18 = load float, ptr %17, align 4
  %19 = fadd float %18, 5.000000e-01
  %20 = getelementptr inbounds nuw i8, ptr %.02426.us, i64 4
  store float %19, ptr %20, align 4
  %21 = getelementptr inbounds nuw i8, ptr %.02426.us, i64 8
  store float 0.000000e+00, ptr %21, align 4
  %22 = getelementptr inbounds nuw i8, ptr %.02426.us, i64 12
  store float 0.000000e+00, ptr %22, align 4
  %23 = getelementptr inbounds nuw i8, ptr %.02426.us, i64 16
  tail call void @llvm.memcpy.p0.p0.i64(ptr noundef nonnull align 4 dereferenceable(16) %23, ptr noundef nonnull align 4 dereferenceable(16) %13, i64 16, i1 false)
  tail call void @SDL_ConvertToLinear(ptr noundef nonnull %23) #8
  %24 = getelementptr inbounds nuw i8, ptr %.02426.us, i64 32
  %indvars.iv.next31 = add nuw nsw i64 %indvars.iv30, 1
  %exitcond34.not = icmp eq i64 %indvars.iv.next31, %wide.trip.count33
  br i1 %exitcond34.not, label %.loopexit, label %.lr.ph.split.us, !llvm.loop !9

.lr.ph.split:                                     ; preds = %.lr.ph, %.lr.ph.split
  %indvars.iv = phi i64 [ %indvars.iv.next, %.lr.ph.split ], [ 0, %.lr.ph ]
  %.02426 = phi ptr [ %35, %.lr.ph.split ], [ %8, %.lr.ph ]
  %25 = getelementptr inbounds nuw %struct.SDL_FPoint, ptr %2, i64 %indvars.iv
  %26 = load float, ptr %25, align 4
  %27 = fadd float %26, 5.000000e-01
  store float %27, ptr %.02426, align 4
  %28 = getelementptr inbounds nuw i8, ptr %25, i64 4
  %29 = load float, ptr %28, align 4
  %30 = fadd float %29, 5.000000e-01
  %31 = getelementptr inbounds nuw i8, ptr %.02426, i64 4
  store float %30, ptr %31, align 4
  %32 = getelementptr inbounds nuw i8, ptr %.02426, i64 8
  store float 0.000000e+00, ptr %32, align 4
  %33 = getelementptr inbounds nuw i8, ptr %.02426, i64 12
  store float 0.000000e+00, ptr %33, align 4
  %34 = getelementptr inbounds nuw i8, ptr %.02426, i64 16
  tail call void @llvm.memcpy.p0.p0.i64(ptr noundef nonnull align 4 dereferenceable(16) %34, ptr noundef nonnull align 4 dereferenceable(16) %13, i64 16, i1 false)
  %35 = getelementptr inbounds nuw i8, ptr %.02426, i64 32
  %indvars.iv.next = add nuw nsw i64 %indvars.iv, 1
  %exitcond.not = icmp eq i64 %indvars.iv.next, %wide.trip.count33
  br i1 %exitcond.not, label %.loopexit, label %.lr.ph.split, !llvm.loop !9

.loopexit:                                        ; preds = %.lr.ph.split, %.lr.ph.split.us, %10, %4
  ret i1 %.not
}